target datalayout = "e-m:e-p270:32:32-p271:32:32-p272:64:64-i64:64-i128:128-f80:128-n8:16:32:64-S128"
target triple = "x86_64-unknown-linux-gnu"

@_mi_numa_node_count = hidden global i64 0, align 8
@.str.5 = private unnamed_addr constant [24 x i8] c"using %zd numa regions\0A\00", align 1

; Function Attrs: nounwind uwtable
define hidden i64 @_mi_os_numa_node_count_get() #0 {
entry:
  %count = alloca i64, align 8
  %atomic-temp = alloca i64, align 8
  %ncount = alloca i64, align 8
  %.atomictmp = alloca i64, align 8
  %0 = load atomic i64, ptr @_mi_numa_node_count acquire, align 8
  store i64 %0, ptr %atomic-temp, align 8
  %1 = load i64, ptr %atomic-temp, align 8
  store i64 %1, ptr %count, align 8
  %2 = load i64, ptr %count, align 8
  %cmp = icmp ule i64 %2, 0
  br i1 %cmp, label %if.then, label %if.end7

if.then:                                          ; preds = %entry
  %call = call i64 @mi_option_get(i32 noundef 16) #5
  store i64 %call, ptr %ncount, align 8
  %3 = load i64, ptr %ncount, align 8
  %cmp1 = icmp sgt i64 %3, 0
  br i1 %cmp1, label %if.then2, label %if.else

if.then2:                                         ; preds = %if.then
  %4 = load i64, ptr %ncount, align 8
  store i64 %4, ptr %count, align 8
  br label %if.end6

if.else:                                          ; preds = %if.then
  %call3 = call i64 @_mi_prim_numa_node_count() #5
  store i64 %call3, ptr %count, align 8
  %5 = load i64, ptr %count, align 8
  %cmp4 = icmp eq i64 %5, 0
  br i1 %cmp4, label %if.then5, label %if.end

if.then5:                                         ; preds = %if.else
  store i64 1, ptr %count, align 8
  br label %if.end

if.end:                                           ; preds = %if.then5, %if.else
  br label %if.end6

if.end6:                                          ; preds = %if.end, %if.then2
  %6 = load i64, ptr %count, align 8
  store i64 %6, ptr %.atomictmp, align 8
  %7 = load i64, ptr %.atomictmp, align 8
  store atomic i64 %7, ptr @_mi_numa_node_count release, align 8
  %8 = load i64, ptr %count, align 8
  call void (ptr, ...) @_mi_verbose_message(ptr noundef @.str.5, i64 noundef %8) #5
  br label %if.end7

if.end7:                                          ; preds = %if.end6, %entry
  %9 = load i64, ptr %count, align 8
  ret i64 %9
}