; Function Attrs: nounwind uwtable
define hidden range(i64 1, 0) i64 @_mi_os_numa_node_count_get() local_unnamed_addr #1 {
entry:
  %0 = load atomic i64, ptr @_mi_numa_node_count acquire, align 8
  %cmp = icmp eq i64 %0, 0
  br i1 %cmp, label %if.then, label %if.end7

if.then:                                          ; preds = %entry
  %call = tail call i64 @mi_option_get(i32 noundef 16) #7
  %cmp1 = icmp sgt i64 %call, 0
  br i1 %cmp1, label %if.end6, label %if.else

if.else:                                          ; preds = %if.then
  %call3 = tail call i64 @_mi_prim_numa_node_count() #7
  %spec.store.select = tail call i64 @llvm.umax.i64(i64 %call3, i64 1)
  br label %if.end6

if.end6:                                          ; preds = %if.then, %if.else
  %count.1 = phi i64 [ %spec.store.select, %if.else ], [ %call, %if.then ]
  store atomic i64 %count.1, ptr @_mi_numa_node_count release, align 8
  tail call void (ptr, ...) @_mi_verbose_message(ptr noundef nonnull @.str.5, i64 noundef %count.1) #7
  br label %if.end7

if.end7:                                          ; preds = %if.end6, %entry
  %count.0 = phi i64 [ %count.1, %if.end6 ], [ %0, %entry ]
  ret i64 %count.0
}